; ModuleID = '43/1473.c'
source_filename = "43/1473.c"
target datalayout = "e-m:e-p270:32:32-p271:32:32-p272:64:64-i64:64-f80:128-n8:16:32:64-S128"
target triple = "x86_64-pc-linux-gnu"

@.str = private unnamed_addr constant [3 x i8] c"%d\00", align 1
@.str.1 = private unnamed_addr constant [7 x i8] c"%d %d\0A\00", align 1

; Function Attrs: noinline nounwind uwtable
define dso_local i32 @fun(i32 %0) #0 {
  %2 = alloca i32, align 4
  %3 = alloca i32, align 4
  %4 = alloca i32, align 4
  store i32 %0, i32* %2, align 4
  store i32 1, i32* %3, align 4
  store i32 2, i32* %4, align 4
  br label %5

5:                                                ; preds = %16, %1
  %6 = load i32, i32* %4, align 4
  %7 = load i32, i32* %2, align 4
  %8 = icmp slt i32 %6, %7
  br i1 %8, label %9, label %19

9:                                                ; preds = %5
  %10 = load i32, i32* %2, align 4
  %11 = load i32, i32* %4, align 4
  %12 = srem i32 %10, %11
  %13 = icmp eq i32 %12, 0
  br i1 %13, label %14, label %15

14:                                               ; preds = %9
  store i32 0, i32* %3, align 4
  br label %19

15:                                               ; preds = %9
  br label %16

16:                                               ; preds = %15
  %17 = load i32, i32* %4, align 4
  %18 = add nsw i32 %17, 1
  store i32 %18, i32* %4, align 4
  br label %5

19:                                               ; preds = %14, %5
  %20 = load i32, i32* %3, align 4
  ret i32 %20
}

; Function Attrs: noinline nounwind uwtable
define dso_local i32 @main() #0 {
  %1 = alloca i32, align 4
  %2 = alloca i32, align 4
  %3 = alloca i32, align 4
  %4 = alloca i32, align 4
  %5 = alloca i32, align 4
  %6 = alloca i32, align 4
  store i32 0, i32* %1, align 4
  %7 = call i32 (i8*, ...) @__isoc99_scanf(i8* getelementptr inbounds ([3 x i8], [3 x i8]* @.str, i64 0, i64 0), i32* %2)
  %8 = load i32, i32* %2, align 4
  %9 = sdiv i32 %8, 2
  store i32 %9, i32* %3, align 4
  %10 = load i32, i32* %3, align 4
  %11 = add nsw i32 %10, 1
  %12 = sdiv i32 %11, 2
  store i32 %12, i32* %4, align 4
  store i32 2, i32* %5, align 4
  br label %13

13:                                               ; preds = %37, %0
  %14 = load i32, i32* %5, align 4
  %15 = load i32, i32* %4, align 4
  %16 = icmp sle i32 %14, %15
  br i1 %16, label %17, label %40

17:                                               ; preds = %13
  %18 = load i32, i32* %5, align 4
  %19 = mul nsw i32 2, %18
  %20 = sub nsw i32 %19, 1
  store i32 %20, i32* %6, align 4
  %21 = load i32, i32* %6, align 4
  %22 = call i32 @fun(i32 %21)
  %23 = icmp eq i32 %22, 1
  br i1 %23, label %24, label %36

24:                                               ; preds = %17
  %25 = load i32, i32* %2, align 4
  %26 = load i32, i32* %6, align 4
  %27 = sub nsw i32 %25, %26
  %28 = call i32 @fun(i32 %27)
  %29 = icmp eq i32 %28, 1
  br i1 %29, label %30, label %36

30:                                               ; preds = %24
  %31 = load i32, i32* %6, align 4
  %32 = load i32, i32* %2, align 4
  %33 = load i32, i32* %6, align 4
  %34 = sub nsw i32 %32, %33
  %35 = call i32 (i8*, ...) @printf(i8* getelementptr inbounds ([7 x i8], [7 x i8]* @.str.1, i64 0, i64 0), i32 %31, i32 %34)
  br label %36

36:                                               ; preds = %30, %24, %17
  br label %37

37:                                               ; preds = %36
  %38 = load i32, i32* %5, align 4
  %39 = add nsw i32 %38, 1
  store i32 %39, i32* %5, align 4
  br label %13

40:                                               ; preds = %13
  %41 = call i32 @getchar()
  %42 = call i32 @getchar()
  %43 = load i32, i32* %1, align 4
  ret i32 %43
}

declare dso_local i32 @__isoc99_scanf(i8*, ...) #1

declare dso_local i32 @printf(i8*, ...) #1

declare dso_local i32 @getchar() #1


!llvm.module.flags = !{!0}
!llvm.ident = !{!1}

!0 = !{i32 1, !"wchar_size", i32 4}
!1 = !{!"clang version 10.0.0-4ubuntu1 "}
